; Function Attrs: nounwind uwtable
define internal range(i32 -1, 1) i32 @H5FD__sec2_get_handle(ptr noundef %0, i64 %1, ptr noundef writeonly %2) #0 {
  %.not = icmp eq ptr %2, null
  br i1 %.not, label %4, label %8

4:                                                ; preds = %3
  %5 = load i64, ptr @H5E_ARGS_g, align 8
  %6 = load i64, ptr @H5E_BADVALUE_g, align 8
  %7 = tail call i32 (ptr, ptr, i32, i64, i64, ptr, ...) @H5E_printf_stack(ptr noundef nonnull @.str.4, ptr noundef nonnull @__func__.H5FD__sec2_get_handle, i32 noundef 627, i64 noundef %5, i64 noundef %6, ptr noundef nonnull @.str.21) #15
  br label %10

8:                                                ; preds = %3
  %9 = getelementptr inbounds i8, ptr %0, i64 80
  store ptr %9, ptr %2, align 8
  br label %10

10:                                               ; preds = %8, %4
  %.0 = phi i32 [ 0, %8 ], [ -1, %4 ]
  ret i32 %.0
}